target datalayout = "e-m:e-p270:32:32-p271:32:32-p272:64:64-i64:64-i128:128-f80:128-n8:16:32:64-S128"
target triple = "x86_64-pc-linux-gnu"

%struct.ui_string_st = type { i32, ptr, i32, ptr, i64, %union.anon, i32 }
%union.anon = type { %struct.anon.0 }
%struct.anon.0 = type { ptr, ptr, ptr }

@.str = private unnamed_addr constant [30 x i8] c"../openssl/crypto/ui/ui_lib.c\00", align 1

; Function Attrs: nounwind uwtable
define internal void @free_string(ptr noundef %0) #0 {
  %2 = alloca ptr, align 8
  store ptr %0, ptr %2, align 8, !tbaa !26
  %3 = load ptr, ptr %2, align 8, !tbaa !26
  %4 = getelementptr inbounds nuw %struct.ui_string_st, ptr %3, i32 0, i32 6
  %5 = load i32, ptr %4, align 8, !tbaa !28
  %6 = and i32 %5, 1
  %7 = icmp ne i32 %6, 0
  br i1 %7, label %8, label %30

8:                                                ; preds = %1
  %9 = load ptr, ptr %2, align 8, !tbaa !26
  %10 = getelementptr inbounds nuw %struct.ui_string_st, ptr %9, i32 0, i32 1
  %11 = load ptr, ptr %10, align 8, !tbaa !31
  call void @CRYPTO_free(ptr noundef %11, ptr noundef @.str, i32 noundef 53)
  %12 = load ptr, ptr %2, align 8, !tbaa !26
  %13 = getelementptr inbounds nuw %struct.ui_string_st, ptr %12, i32 0, i32 0
  %14 = load i32, ptr %13, align 8, !tbaa !32
  switch i32 %14, label %29 [
    i32 3, label %15
    i32 0, label %28
    i32 1, label %28
    i32 2, label %28
    i32 5, label %28
    i32 4, label %28
  ]

15:                                               ; preds = %8
  %16 = load ptr, ptr %2, align 8, !tbaa !26
  %17 = getelementptr inbounds nuw %struct.ui_string_st, ptr %16, i32 0, i32 5
  %18 = getelementptr inbounds nuw %struct.anon.0, ptr %17, i32 0, i32 0
  %19 = load ptr, ptr %18, align 8, !tbaa !33
  call void @CRYPTO_free(ptr noundef %19, ptr noundef @.str, i32 noundef 56)
  %20 = load ptr, ptr %2, align 8, !tbaa !26
  %21 = getelementptr inbounds nuw %struct.ui_string_st, ptr %20, i32 0, i32 5
  %22 = getelementptr inbounds nuw %struct.anon.0, ptr %21, i32 0, i32 1
  %23 = load ptr, ptr %22, align 8, !tbaa !33
  call void @CRYPTO_free(ptr noundef %23, ptr noundef @.str, i32 noundef 57)
  %24 = load ptr, ptr %2, align 8, !tbaa !26
  %25 = getelementptr inbounds nuw %struct.ui_string_st, ptr %24, i32 0, i32 5
  %26 = getelementptr inbounds nuw %struct.anon.0, ptr %25, i32 0, i32 2
  %27 = load ptr, ptr %26, align 8, !tbaa !33
  call void @CRYPTO_free(ptr noundef %27, ptr noundef @.str, i32 noundef 58)
  br label %29

28:                                               ; preds = %8, %8, %8, %8, %8
  br label %29

29:                                               ; preds = %8, %28, %15
  br label %30

30:                                               ; preds = %29, %1
  %31 = load ptr, ptr %2, align 8, !tbaa !26
  call void @CRYPTO_free(ptr noundef %31, ptr noundef @.str, i32 noundef 68)
  ret void
}