; Function Attrs: nounwind uwtable
define internal void @free_string(ptr noundef %0) #0 {
  %2 = getelementptr inbounds nuw i8, ptr %0, i64 64
  %3 = load i32, ptr %2, align 8, !tbaa !21
  %4 = and i32 %3, 1
  %.not = icmp eq i32 %4, 0
  br i1 %.not, label %16, label %5

5:                                                ; preds = %1
  %6 = getelementptr inbounds nuw i8, ptr %0, i64 8
  %7 = load ptr, ptr %6, align 8, !tbaa !24
  tail call void @CRYPTO_free(ptr noundef %7, ptr noundef nonnull @.str, i32 noundef 53) #8
  %8 = load i32, ptr %0, align 8, !tbaa !25
  %cond = icmp eq i32 %8, 3
  br i1 %cond, label %9, label %16

9:                                                ; preds = %5
  %10 = getelementptr inbounds nuw i8, ptr %0, i64 40
  %11 = load ptr, ptr %10, align 8, !tbaa !26
  tail call void @CRYPTO_free(ptr noundef %11, ptr noundef nonnull @.str, i32 noundef 56) #8
  %12 = getelementptr inbounds nuw i8, ptr %0, i64 48
  %13 = load ptr, ptr %12, align 8, !tbaa !26
  tail call void @CRYPTO_free(ptr noundef %13, ptr noundef nonnull @.str, i32 noundef 57) #8
  %14 = getelementptr inbounds nuw i8, ptr %0, i64 56
  %15 = load ptr, ptr %14, align 8, !tbaa !26
  tail call void @CRYPTO_free(ptr noundef %15, ptr noundef nonnull @.str, i32 noundef 58) #8
  br label %16

16:                                               ; preds = %5, %9, %1
  tail call void @CRYPTO_free(ptr noundef nonnull %0, ptr noundef nonnull @.str, i32 noundef 68) #8
  ret void
}